target datalayout = "e-m:e-p270:32:32-p271:32:32-p272:64:64-i64:64-i128:128-f80:128-n8:16:32:64-S128"
target triple = "x86_64-pc-linux-gnu"

%struct.QArrayData = type { %"class.QtPrivate::RefCount", i32, i32, i64 }
%"class.QtPrivate::RefCount" = type { %class.QBasicAtomicInteger }
%class.QBasicAtomicInteger = type { %"struct.std::atomic" }
%"struct.std::atomic" = type { %"struct.std::__atomic_base" }
%"struct.std::__atomic_base" = type { i32 }
%class.IOPlugin = type { ptr, %class.QString, %class.MeshLabPlugin, %class.MeshLabPluginLogger }
%class.QString = type { ptr }
%class.MeshLabPlugin = type { ptr, i8, %class.QFileInfo }
%class.QFileInfo = type { %class.QSharedDataPointer }
%class.QSharedDataPointer = type { ptr }
%class.MeshLabPluginLogger = type { ptr, ptr }

@_ZN10QArrayData11shared_nullE = external global [2 x %struct.QArrayData], align 16

; Function Attrs: mustprogress nounwind uwtable
define linkonce_odr noundef ptr @_ZN10QArrayData10sharedNullEv() #4 comdat align 2 {
  ret ptr @_ZN10QArrayData11shared_nullE
}

; Function Attrs: mustprogress nounwind uwtable
define linkonce_odr noundef ptr @_ZN15QTypedArrayDataItE10sharedNullEv() #4 comdat align 2 {
  %1 = call noundef ptr @_ZN10QArrayData10sharedNullEv() #3
  ret ptr %1
}

; Function Attrs: mustprogress nounwind uwtable
define linkonce_odr void @_ZN7QStringC2Ev(ptr noundef nonnull align 8 dereferenceable(8) %0) unnamed_addr #4 comdat align 2 {
  %2 = alloca ptr, align 8
  store ptr %0, ptr %2, align 8
  %3 = load ptr, ptr %2, align 8
  %4 = getelementptr inbounds %class.QString, ptr %3, i32 0, i32 0
  %5 = call noundef ptr @_ZN15QTypedArrayDataItE10sharedNullEv() #3
  store ptr %5, ptr %4, align 8
  ret void
}

; Function Attrs: mustprogress nounwind uwtable
define linkonce_odr void @_ZN8IOPluginC2Ev(ptr noundef nonnull align 8 dereferenceable(16) %0, ptr noundef %1) unnamed_addr #4 comdat align 2 {
  %3 = alloca ptr, align 8
  %4 = alloca ptr, align 8
  store ptr %0, ptr %3, align 8
  store ptr %1, ptr %4, align 8
  %5 = load ptr, ptr %3, align 8
  %6 = load ptr, ptr %4, align 8
  %7 = load ptr, ptr %6, align 8
  store ptr %7, ptr %5, align 8
  %8 = getelementptr inbounds ptr, ptr %6, i64 1
  %9 = load ptr, ptr %8, align 8
  %10 = load ptr, ptr %5, align 8
  %11 = getelementptr i8, ptr %10, i64 -24
  %12 = load i64, ptr %11, align 8
  %13 = getelementptr inbounds i8, ptr %5, i64 %12
  store ptr %9, ptr %13, align 8
  %14 = getelementptr inbounds ptr, ptr %6, i64 2
  %15 = load ptr, ptr %14, align 8
  %16 = load ptr, ptr %5, align 8
  %17 = getelementptr i8, ptr %16, i64 -32
  %18 = load i64, ptr %17, align 8
  %19 = getelementptr inbounds i8, ptr %5, i64 %18
  store ptr %15, ptr %19, align 8
  %20 = getelementptr inbounds %class.IOPlugin, ptr %5, i32 0, i32 1
  call void @_ZN7QStringC2Ev(ptr noundef nonnull align 8 dereferenceable(8) %20) #3
  ret void
}

; Function Attrs: mustprogress uwtable
define void @_ZN12JSONIOPluginC2Ev(ptr noundef nonnull align 8 dereferenceable(32) %0, ptr noundef %1) unnamed_addr #5 align 2 personality ptr @__gxx_personality_v0 {
  %3 = alloca ptr, align 8
  %4 = alloca ptr, align 8
  %5 = alloca ptr, align 8
  %6 = alloca i32, align 4
  store ptr %0, ptr %3, align 8
  store ptr %1, ptr %4, align 8
  %7 = load ptr, ptr %3, align 8
  %8 = load ptr, ptr %4, align 8
  call void @_ZN7QObjectC2EPS_(ptr noundef nonnull align 8 dereferenceable(16) %7, ptr noundef null)
  %9 = getelementptr inbounds i8, ptr %7, i64 16
  %10 = getelementptr inbounds ptr, ptr %8, i64 1
  invoke void @_ZN8IOPluginC2Ev(ptr noundef nonnull align 8 dereferenceable(16) %9, ptr noundef %10)
          to label %11 unwind label %28

11:                                               ; preds = %2
  %12 = load ptr, ptr %8, align 8
  store ptr %12, ptr %7, align 8
  %13 = getelementptr inbounds ptr, ptr %8, i64 4
  %14 = load ptr, ptr %13, align 8
  %15 = getelementptr inbounds i8, ptr %7, i64 16
  store ptr %14, ptr %15, align 8
  %16 = getelementptr inbounds ptr, ptr %8, i64 5
  %17 = load ptr, ptr %16, align 8
  %18 = load ptr, ptr %7, align 8
  %19 = getelementptr i8, ptr %18, i64 -24
  %20 = load i64, ptr %19, align 8
  %21 = getelementptr inbounds i8, ptr %7, i64 %20
  store ptr %17, ptr %21, align 8
  %22 = getelementptr inbounds ptr, ptr %8, i64 6
  %23 = load ptr, ptr %22, align 8
  %24 = load ptr, ptr %7, align 8
  %25 = getelementptr i8, ptr %24, i64 -32
  %26 = load i64, ptr %25, align 8
  %27 = getelementptr inbounds i8, ptr %7, i64 %26
  store ptr %23, ptr %27, align 8
  ret void

28:                                               ; preds = %2
  %29 = landingpad { ptr, i32 }
          cleanup
  %30 = extractvalue { ptr, i32 } %29, 0
  store ptr %30, ptr %5, align 8
  %31 = extractvalue { ptr, i32 } %29, 1
  store i32 %31, ptr %6, align 4
  call void @_ZN7QObjectD2Ev(ptr noundef nonnull align 8 dereferenceable(16) %7) #3
  br label %32

32:                                               ; preds = %28
  %33 = load ptr, ptr %5, align 8
  %34 = load i32, ptr %6, align 4
  %35 = insertvalue { ptr, i32 } poison, ptr %33, 0
  %36 = insertvalue { ptr, i32 } %35, i32 %34, 1
  resume { ptr, i32 } %36
}