; Function Attrs: mustprogress uwtable
define void @_ZN12JSONIOPluginC2Ev(ptr noundef nonnull align 8 dereferenceable(32) %0, ptr nocapture noundef readonly %1) unnamed_addr #9 align 2 personality ptr @__gxx_personality_v0 {
  tail call void @_ZN7QObjectC2EPS_(ptr noundef nonnull align 8 dereferenceable(16) %0, ptr noundef null)
  %3 = getelementptr inbounds i8, ptr %0, i64 16
  %4 = getelementptr inbounds i8, ptr %1, i64 8
  %5 = load ptr, ptr %4, align 8
  store ptr %5, ptr %3, align 8
  %6 = getelementptr inbounds i8, ptr %1, i64 16
  %7 = load ptr, ptr %6, align 8
  %8 = getelementptr i8, ptr %5, i64 -24
  %9 = load i64, ptr %8, align 8
  %10 = getelementptr inbounds i8, ptr %3, i64 %9
  store ptr %7, ptr %10, align 8
  %11 = getelementptr inbounds i8, ptr %1, i64 24
  %12 = load ptr, ptr %11, align 8
  %13 = load ptr, ptr %3, align 8
  %14 = getelementptr i8, ptr %13, i64 -32
  %15 = load i64, ptr %14, align 8
  %16 = getelementptr inbounds i8, ptr %3, i64 %15
  store ptr %12, ptr %16, align 8
  %17 = getelementptr inbounds i8, ptr %0, i64 24
  store ptr @_ZN10QArrayData11shared_nullE, ptr %17, align 8
  %18 = load ptr, ptr %1, align 8
  store ptr %18, ptr %0, align 8
  %19 = getelementptr inbounds i8, ptr %1, i64 32
  %20 = load ptr, ptr %19, align 8
  store ptr %20, ptr %3, align 8
  %21 = getelementptr inbounds i8, ptr %1, i64 40
  %22 = load ptr, ptr %21, align 8
  %23 = getelementptr i8, ptr %18, i64 -24
  %24 = load i64, ptr %23, align 8
  %25 = getelementptr inbounds i8, ptr %0, i64 %24
  store ptr %22, ptr %25, align 8
  %26 = getelementptr inbounds i8, ptr %1, i64 48
  %27 = load ptr, ptr %26, align 8
  %28 = load ptr, ptr %0, align 8
  %29 = getelementptr i8, ptr %28, i64 -32
  %30 = load i64, ptr %29, align 8
  %31 = getelementptr inbounds i8, ptr %0, i64 %30
  store ptr %27, ptr %31, align 8
  ret void
}